target datalayout = "e-m:e-p270:32:32-p271:32:32-p272:64:64-i64:64-i128:128-f80:128-n8:16:32:64-S128"
target triple = "x86_64-pc-linux-gnu"

; Function Attrs: nounwind uwtable
define internal void @VR4_C(ptr noundef %0) #0 {
  %2 = alloca ptr, align 8
  %3 = alloca i32, align 4
  %4 = alloca i32, align 4
  %5 = alloca i32, align 4
  %6 = alloca i32, align 4
  %7 = alloca i32, align 4
  %8 = alloca i32, align 4
  %9 = alloca i32, align 4
  %10 = alloca i32, align 4
  store ptr %0, ptr %2, align 8, !tbaa !16
  call void @llvm.lifetime.start.p0(i64 4, ptr %3) #7
  %11 = load ptr, ptr %2, align 8, !tbaa !16
  %12 = getelementptr inbounds i8, ptr %11, i64 -1
  %13 = load i8, ptr %12, align 1, !tbaa !18
  %14 = zext i8 %13 to i32
  store i32 %14, ptr %3, align 4, !tbaa !9
  call void @llvm.lifetime.start.p0(i64 4, ptr %4) #7
  %15 = load ptr, ptr %2, align 8, !tbaa !16
  %16 = getelementptr inbounds i8, ptr %15, i64 31
  %17 = load i8, ptr %16, align 1, !tbaa !18
  %18 = zext i8 %17 to i32
  store i32 %18, ptr %4, align 4, !tbaa !9
  call void @llvm.lifetime.start.p0(i64 4, ptr %5) #7
  %19 = load ptr, ptr %2, align 8, !tbaa !16
  %20 = getelementptr inbounds i8, ptr %19, i64 63
  %21 = load i8, ptr %20, align 1, !tbaa !18
  %22 = zext i8 %21 to i32
  store i32 %22, ptr %5, align 4, !tbaa !9
  call void @llvm.lifetime.start.p0(i64 4, ptr %6) #7
  %23 = load ptr, ptr %2, align 8, !tbaa !16
  %24 = getelementptr inbounds i8, ptr %23, i64 -33
  %25 = load i8, ptr %24, align 1, !tbaa !18
  %26 = zext i8 %25 to i32
  store i32 %26, ptr %6, align 4, !tbaa !9
  call void @llvm.lifetime.start.p0(i64 4, ptr %7) #7
  %27 = load ptr, ptr %2, align 8, !tbaa !16
  %28 = getelementptr inbounds i8, ptr %27, i64 -32
  %29 = load i8, ptr %28, align 1, !tbaa !18
  %30 = zext i8 %29 to i32
  store i32 %30, ptr %7, align 4, !tbaa !9
  call void @llvm.lifetime.start.p0(i64 4, ptr %8) #7
  %31 = load ptr, ptr %2, align 8, !tbaa !16
  %32 = getelementptr inbounds i8, ptr %31, i64 -31
  %33 = load i8, ptr %32, align 1, !tbaa !18
  %34 = zext i8 %33 to i32
  store i32 %34, ptr %8, align 4, !tbaa !9
  call void @llvm.lifetime.start.p0(i64 4, ptr %9) #7
  %35 = load ptr, ptr %2, align 8, !tbaa !16
  %36 = getelementptr inbounds i8, ptr %35, i64 -30
  %37 = load i8, ptr %36, align 1, !tbaa !18
  %38 = zext i8 %37 to i32
  store i32 %38, ptr %9, align 4, !tbaa !9
  call void @llvm.lifetime.start.p0(i64 4, ptr %10) #7
  %39 = load ptr, ptr %2, align 8, !tbaa !16
  %40 = getelementptr inbounds i8, ptr %39, i64 -29
  %41 = load i8, ptr %40, align 1, !tbaa !18
  %42 = zext i8 %41 to i32
  store i32 %42, ptr %10, align 4, !tbaa !9
  %43 = load i32, ptr %6, align 4, !tbaa !9
  %44 = load i32, ptr %7, align 4, !tbaa !9
  %45 = add nsw i32 %43, %44
  %46 = add nsw i32 %45, 1
  %47 = ashr i32 %46, 1
  %48 = trunc i32 %47 to i8
  %49 = load ptr, ptr %2, align 8, !tbaa !16
  %50 = getelementptr inbounds i8, ptr %49, i64 65
  store i8 %48, ptr %50, align 1, !tbaa !18
  %51 = load ptr, ptr %2, align 8, !tbaa !16
  %52 = getelementptr inbounds i8, ptr %51, i64 0
  store i8 %48, ptr %52, align 1, !tbaa !18
  %53 = load i32, ptr %7, align 4, !tbaa !9
  %54 = load i32, ptr %8, align 4, !tbaa !9
  %55 = add nsw i32 %53, %54
  %56 = add nsw i32 %55, 1
  %57 = ashr i32 %56, 1
  %58 = trunc i32 %57 to i8
  %59 = load ptr, ptr %2, align 8, !tbaa !16
  %60 = getelementptr inbounds i8, ptr %59, i64 66
  store i8 %58, ptr %60, align 1, !tbaa !18
  %61 = load ptr, ptr %2, align 8, !tbaa !16
  %62 = getelementptr inbounds i8, ptr %61, i64 1
  store i8 %58, ptr %62, align 1, !tbaa !18
  %63 = load i32, ptr %8, align 4, !tbaa !9
  %64 = load i32, ptr %9, align 4, !tbaa !9
  %65 = add nsw i32 %63, %64
  %66 = add nsw i32 %65, 1
  %67 = ashr i32 %66, 1
  %68 = trunc i32 %67 to i8
  %69 = load ptr, ptr %2, align 8, !tbaa !16
  %70 = getelementptr inbounds i8, ptr %69, i64 67
  store i8 %68, ptr %70, align 1, !tbaa !18
  %71 = load ptr, ptr %2, align 8, !tbaa !16
  %72 = getelementptr inbounds i8, ptr %71, i64 2
  store i8 %68, ptr %72, align 1, !tbaa !18
  %73 = load i32, ptr %9, align 4, !tbaa !9
  %74 = load i32, ptr %10, align 4, !tbaa !9
  %75 = add nsw i32 %73, %74
  %76 = add nsw i32 %75, 1
  %77 = ashr i32 %76, 1
  %78 = trunc i32 %77 to i8
  %79 = load ptr, ptr %2, align 8, !tbaa !16
  %80 = getelementptr inbounds i8, ptr %79, i64 3
  store i8 %78, ptr %80, align 1, !tbaa !18
  %81 = load i32, ptr %5, align 4, !tbaa !9
  %82 = load i32, ptr %4, align 4, !tbaa !9
  %83 = mul nsw i32 2, %82
  %84 = add nsw i32 %81, %83
  %85 = load i32, ptr %3, align 4, !tbaa !9
  %86 = add nsw i32 %84, %85
  %87 = add nsw i32 %86, 2
  %88 = ashr i32 %87, 2
  %89 = trunc i32 %88 to i8
  %90 = load ptr, ptr %2, align 8, !tbaa !16
  %91 = getelementptr inbounds i8, ptr %90, i64 96
  store i8 %89, ptr %91, align 1, !tbaa !18
  %92 = load i32, ptr %4, align 4, !tbaa !9
  %93 = load i32, ptr %3, align 4, !tbaa !9
  %94 = mul nsw i32 2, %93
  %95 = add nsw i32 %92, %94
  %96 = load i32, ptr %6, align 4, !tbaa !9
  %97 = add nsw i32 %95, %96
  %98 = add nsw i32 %97, 2
  %99 = ashr i32 %98, 2
  %100 = trunc i32 %99 to i8
  %101 = load ptr, ptr %2, align 8, !tbaa !16
  %102 = getelementptr inbounds i8, ptr %101, i64 64
  store i8 %100, ptr %102, align 1, !tbaa !18
  %103 = load i32, ptr %3, align 4, !tbaa !9
  %104 = load i32, ptr %6, align 4, !tbaa !9
  %105 = mul nsw i32 2, %104
  %106 = add nsw i32 %103, %105
  %107 = load i32, ptr %7, align 4, !tbaa !9
  %108 = add nsw i32 %106, %107
  %109 = add nsw i32 %108, 2
  %110 = ashr i32 %109, 2
  %111 = trunc i32 %110 to i8
  %112 = load ptr, ptr %2, align 8, !tbaa !16
  %113 = getelementptr inbounds i8, ptr %112, i64 97
  store i8 %111, ptr %113, align 1, !tbaa !18
  %114 = load ptr, ptr %2, align 8, !tbaa !16
  %115 = getelementptr inbounds i8, ptr %114, i64 32
  store i8 %111, ptr %115, align 1, !tbaa !18
  %116 = load i32, ptr %6, align 4, !tbaa !9
  %117 = load i32, ptr %7, align 4, !tbaa !9
  %118 = mul nsw i32 2, %117
  %119 = add nsw i32 %116, %118
  %120 = load i32, ptr %8, align 4, !tbaa !9
  %121 = add nsw i32 %119, %120
  %122 = add nsw i32 %121, 2
  %123 = ashr i32 %122, 2
  %124 = trunc i32 %123 to i8
  %125 = load ptr, ptr %2, align 8, !tbaa !16
  %126 = getelementptr inbounds i8, ptr %125, i64 98
  store i8 %124, ptr %126, align 1, !tbaa !18
  %127 = load ptr, ptr %2, align 8, !tbaa !16
  %128 = getelementptr inbounds i8, ptr %127, i64 33
  store i8 %124, ptr %128, align 1, !tbaa !18
  %129 = load i32, ptr %7, align 4, !tbaa !9
  %130 = load i32, ptr %8, align 4, !tbaa !9
  %131 = mul nsw i32 2, %130
  %132 = add nsw i32 %129, %131
  %133 = load i32, ptr %9, align 4, !tbaa !9
  %134 = add nsw i32 %132, %133
  %135 = add nsw i32 %134, 2
  %136 = ashr i32 %135, 2
  %137 = trunc i32 %136 to i8
  %138 = load ptr, ptr %2, align 8, !tbaa !16
  %139 = getelementptr inbounds i8, ptr %138, i64 99
  store i8 %137, ptr %139, align 1, !tbaa !18
  %140 = load ptr, ptr %2, align 8, !tbaa !16
  %141 = getelementptr inbounds i8, ptr %140, i64 34
  store i8 %137, ptr %141, align 1, !tbaa !18
  %142 = load i32, ptr %8, align 4, !tbaa !9
  %143 = load i32, ptr %9, align 4, !tbaa !9
  %144 = mul nsw i32 2, %143
  %145 = add nsw i32 %142, %144
  %146 = load i32, ptr %10, align 4, !tbaa !9
  %147 = add nsw i32 %145, %146
  %148 = add nsw i32 %147, 2
  %149 = ashr i32 %148, 2
  %150 = trunc i32 %149 to i8
  %151 = load ptr, ptr %2, align 8, !tbaa !16
  %152 = getelementptr inbounds i8, ptr %151, i64 35
  store i8 %150, ptr %152, align 1, !tbaa !18
  call void @llvm.lifetime.end.p0(i64 4, ptr %10) #7
  call void @llvm.lifetime.end.p0(i64 4, ptr %9) #7
  call void @llvm.lifetime.end.p0(i64 4, ptr %8) #7
  call void @llvm.lifetime.end.p0(i64 4, ptr %7) #7
  call void @llvm.lifetime.end.p0(i64 4, ptr %6) #7
  call void @llvm.lifetime.end.p0(i64 4, ptr %5) #7
  call void @llvm.lifetime.end.p0(i64 4, ptr %4) #7
  call void @llvm.lifetime.end.p0(i64 4, ptr %3) #7
  ret void
}